target datalayout = "e-m:e-p270:32:32-p271:32:32-p272:64:64-i64:64-i128:128-f80:128-n8:16:32:64-S128"
target triple = "x86_64-pc-linux-gnu"

%struct._address = type { i32, i32, ptr, ptr }
%struct._channel_info_t = type { [32 x i8], ptr, %struct._unicast_addr_t, %struct._unicast_addr_t, i32, i8, i8 }
%struct._unicast_addr_t = type { %struct._address, [16 x i8], i32 }

@ett_h245_TransportAddress = internal global i32 0, align 4
@upcoming_channel = internal global ptr null, align 8

; Function Attrs: null_pointer_is_valid sspstrong uwtable
define hidden i32 @dissect_h245_TransportAddress(ptr noundef %0, i32 noundef %1, ptr noundef %2, ptr noundef %3, i32 noundef %4) #1 {
  %6 = alloca ptr, align 8
  %7 = alloca i32, align 4
  %8 = alloca ptr, align 8
  %9 = alloca ptr, align 8
  %10 = alloca i32, align 4
  store ptr %0, ptr %6, align 8
  store i32 %1, ptr %7, align 4
  store ptr %2, ptr %8, align 8
  store ptr %3, ptr %9, align 8
  store i32 %4, ptr %10, align 4
  %11 = load ptr, ptr %6, align 8
  %12 = load i32, ptr %7, align 4
  %13 = load ptr, ptr %8, align 8
  %14 = load ptr, ptr %9, align 8
  %15 = load i32, ptr %10, align 4
  %16 = load i32, ptr @ett_h245_TransportAddress, align 4
  %17 = call i32 @dissect_per_choice(ptr noundef %11, i32 noundef %12, ptr noundef %13, ptr noundef %14, i32 noundef %15, i32 noundef %16, ptr noundef @TransportAddress_choice, ptr noundef null)
  store i32 %17, ptr %7, align 4
  %18 = load i32, ptr %7, align 4
  ret i32 %18
}

; Function Attrs: null_pointer_is_valid sspstrong uwtable
define internal i32 @dissect_h245_T_mediaChannel(ptr noundef %0, i32 noundef %1, ptr noundef %2, ptr noundef %3, i32 noundef %4) #1 {
  %6 = alloca ptr, align 8
  %7 = alloca i32, align 4
  %8 = alloca ptr, align 8
  %9 = alloca ptr, align 8
  %10 = alloca i32, align 4
  store ptr %0, ptr %6, align 8
  store i32 %1, ptr %7, align 4
  store ptr %2, ptr %8, align 8
  store ptr %3, ptr %9, align 8
  store i32 %4, ptr %10, align 4
  %11 = load ptr, ptr @upcoming_channel, align 8
  %12 = icmp ne ptr %11, null
  br i1 %12, label %13, label %18

13:                                               ; preds = %5
  %14 = load ptr, ptr @upcoming_channel, align 8
  %15 = getelementptr inbounds nuw %struct._channel_info_t, ptr %14, i32 0, i32 2
  %16 = load ptr, ptr @upcoming_channel, align 8
  %17 = getelementptr inbounds nuw %struct._channel_info_t, ptr %16, i32 0, i32 1
  store ptr %15, ptr %17, align 8
  br label %18

18:                                               ; preds = %13, %5
  %19 = load ptr, ptr %6, align 8
  %20 = load i32, ptr %7, align 4
  %21 = load ptr, ptr %8, align 8
  %22 = load ptr, ptr %9, align 8
  %23 = load i32, ptr %10, align 4
  %24 = call i32 @dissect_h245_TransportAddress(ptr noundef %19, i32 noundef %20, ptr noundef %21, ptr noundef %22, i32 noundef %23)
  store i32 %24, ptr %7, align 4
  %25 = load ptr, ptr @upcoming_channel, align 8
  %26 = icmp ne ptr %25, null
  br i1 %26, label %27, label %30

27:                                               ; preds = %18
  %28 = load ptr, ptr @upcoming_channel, align 8
  %29 = getelementptr inbounds nuw %struct._channel_info_t, ptr %28, i32 0, i32 1
  store ptr null, ptr %29, align 8
  br label %30

30:                                               ; preds = %27, %18
  %31 = load i32, ptr %7, align 4
  ret i32 %31
}